; ModuleID = '36/827.c'
source_filename = "36/827.c"
target datalayout = "e-m:e-p270:32:32-p271:32:32-p272:64:64-i64:64-f80:128-n8:16:32:64-S128"
target triple = "x86_64-pc-linux-gnu"

@.str = private unnamed_addr constant [6 x i8] c"%s %s\00", align 1
@.str.1 = private unnamed_addr constant [3 x i8] c"NO\00", align 1
@.str.2 = private unnamed_addr constant [4 x i8] c"YES\00", align 1

; Function Attrs: noinline nounwind uwtable
define dso_local void @main() #0 {
  %1 = alloca [100 x i8], align 16
  %2 = alloca [100 x i8], align 16
  %3 = alloca i32, align 4
  %4 = alloca i32, align 4
  %5 = getelementptr inbounds [100 x i8], [100 x i8]* %1, i64 0, i64 0
  %6 = getelementptr inbounds [100 x i8], [100 x i8]* %2, i64 0, i64 0
  %7 = call i32 (i8*, ...) @__isoc99_scanf(i8* getelementptr inbounds ([6 x i8], [6 x i8]* @.str, i64 0, i64 0), i8* %5, i8* %6)
  %8 = getelementptr inbounds [100 x i8], [100 x i8]* %1, i64 0, i64 0
  %9 = call i64 @strlen(i8* %8) #3
  %10 = trunc i64 %9 to i32
  store i32 %10, i32* %3, align 4
  %11 = getelementptr inbounds [100 x i8], [100 x i8]* %2, i64 0, i64 0
  %12 = call i64 @strlen(i8* %11) #3
  %13 = trunc i64 %12 to i32
  store i32 %13, i32* %4, align 4
  %14 = load i32, i32* %3, align 4
  %15 = load i32, i32* %4, align 4
  %16 = icmp ne i32 %14, %15
  br i1 %16, label %17, label %19

17:                                               ; preds = %0
  %18 = call i32 (i8*, ...) @printf(i8* getelementptr inbounds ([3 x i8], [3 x i8]* @.str.1, i64 0, i64 0))
  br label %31

19:                                               ; preds = %0
  %20 = getelementptr inbounds [100 x i8], [100 x i8]* %1, i64 0, i64 0
  call void @swap(i8* %20)
  %21 = getelementptr inbounds [100 x i8], [100 x i8]* %2, i64 0, i64 0
  call void @swap(i8* %21)
  %22 = getelementptr inbounds [100 x i8], [100 x i8]* %1, i64 0, i64 0
  %23 = getelementptr inbounds [100 x i8], [100 x i8]* %2, i64 0, i64 0
  %24 = call i32 @strcmp(i8* %22, i8* %23) #3
  %25 = icmp eq i32 %24, 0
  br i1 %25, label %26, label %28

26:                                               ; preds = %19
  %27 = call i32 (i8*, ...) @printf(i8* getelementptr inbounds ([4 x i8], [4 x i8]* @.str.2, i64 0, i64 0))
  br label %30

28:                                               ; preds = %19
  %29 = call i32 (i8*, ...) @printf(i8* getelementptr inbounds ([3 x i8], [3 x i8]* @.str.1, i64 0, i64 0))
  br label %30

30:                                               ; preds = %28, %26
  br label %31

31:                                               ; preds = %30, %17
  ret void
}

declare dso_local i32 @__isoc99_scanf(i8*, ...) #1

; Function Attrs: nounwind readonly
declare dso_local i64 @strlen(i8*) #2

declare dso_local i32 @printf(i8*, ...) #1

; Function Attrs: noinline nounwind uwtable
define dso_local void @swap(i8* %0) #0 {
  %2 = alloca i8*, align 8
  %3 = alloca i32, align 4
  %4 = alloca i32, align 4
  %5 = alloca i32, align 4
  %6 = alloca i8, align 1
  store i8* %0, i8** %2, align 8
  %7 = load i8*, i8** %2, align 8
  %8 = call i64 @strlen(i8* %7) #3
  %9 = trunc i64 %8 to i32
  store i32 %9, i32* %3, align 4
  store i32 0, i32* %4, align 4
  br label %10

10:                                               ; preds = %65, %1
  %11 = load i32, i32* %4, align 4
  %12 = load i32, i32* %3, align 4
  %13 = sub nsw i32 %12, 1
  %14 = icmp slt i32 %11, %13
  br i1 %14, label %15, label %68

15:                                               ; preds = %10
  store i32 0, i32* %5, align 4
  br label %16

16:                                               ; preds = %61, %15
  %17 = load i32, i32* %5, align 4
  %18 = load i32, i32* %3, align 4
  %19 = sub nsw i32 %18, 1
  %20 = load i32, i32* %4, align 4
  %21 = sub nsw i32 %19, %20
  %22 = icmp slt i32 %17, %21
  br i1 %22, label %23, label %64

23:                                               ; preds = %16
  %24 = load i8*, i8** %2, align 8
  %25 = load i32, i32* %5, align 4
  %26 = add nsw i32 %25, 1
  %27 = sext i32 %26 to i64
  %28 = getelementptr inbounds i8, i8* %24, i64 %27
  %29 = load i8, i8* %28, align 1
  %30 = sext i8 %29 to i32
  %31 = load i8*, i8** %2, align 8
  %32 = load i32, i32* %5, align 4
  %33 = sext i32 %32 to i64
  %34 = getelementptr inbounds i8, i8* %31, i64 %33
  %35 = load i8, i8* %34, align 1
  %36 = sext i8 %35 to i32
  %37 = icmp sgt i32 %30, %36
  br i1 %37, label %38, label %60

38:                                               ; preds = %23
  %39 = load i8*, i8** %2, align 8
  %40 = load i32, i32* %5, align 4
  %41 = sext i32 %40 to i64
  %42 = getelementptr inbounds i8, i8* %39, i64 %41
  %43 = load i8, i8* %42, align 1
  store i8 %43, i8* %6, align 1
  %44 = load i8*, i8** %2, align 8
  %45 = load i32, i32* %5, align 4
  %46 = add nsw i32 %45, 1
  %47 = sext i32 %46 to i64
  %48 = getelementptr inbounds i8, i8* %44, i64 %47
  %49 = load i8, i8* %48, align 1
  %50 = load i8*, i8** %2, align 8
  %51 = load i32, i32* %5, align 4
  %52 = sext i32 %51 to i64
  %53 = getelementptr inbounds i8, i8* %50, i64 %52
  store i8 %49, i8* %53, align 1
  %54 = load i8, i8* %6, align 1
  %55 = load i8*, i8** %2, align 8
  %56 = load i32, i32* %5, align 4
  %57 = add nsw i32 %56, 1
  %58 = sext i32 %57 to i64
  %59 = getelementptr inbounds i8, i8* %55, i64 %58
  store i8 %54, i8* %59, align 1
  br label %60

60:                                               ; preds = %38, %23
  br label %61

61:                                               ; preds = %60
  %62 = load i32, i32* %5, align 4
  %63 = add nsw i32 %62, 1
  store i32 %63, i32* %5, align 4
  br label %16

64:                                               ; preds = %16
  br label %65

65:                                               ; preds = %64
  %66 = load i32, i32* %4, align 4
  %67 = add nsw i32 %66, 1
  store i32 %67, i32* %4, align 4
  br label %10

68:                                               ; preds = %10
  ret void
}

; Function Attrs: nounwind readonly
declare dso_local i32 @strcmp(i8*, i8*) #2


!llvm.module.flags = !{!0}
!llvm.ident = !{!1}

!0 = !{i32 1, !"wchar_size", i32 4}
!1 = !{!"clang version 10.0.0-4ubuntu1 "}
